target datalayout = "e-m:e-p270:32:32-p271:32:32-p272:64:64-i64:64-i128:128-f80:128-n8:16:32:64-S128"
target triple = "x86_64-pc-linux-gnu"

%struct.Abc_Ntk_t_ = type { i32, i32, ptr, ptr, ptr, ptr, ptr, ptr, ptr, ptr, ptr, ptr, ptr, [11 x i32], i32, i32, i32, i32, ptr, i32, ptr, ptr, i32, i32, i32, double, i32, %struct.Vec_Int_t_, ptr, ptr, ptr, ptr, ptr, float, i32, ptr, ptr, ptr, ptr, ptr, ptr, ptr, ptr, ptr, ptr, ptr, ptr, ptr, ptr, ptr, ptr, ptr, ptr, ptr, ptr, ptr, ptr }
%struct.Vec_Int_t_ = type { i32, i32, ptr }
%struct.Abc_Obj_t_ = type { ptr, ptr, i32, i32, %struct.Vec_Int_t_, %struct.Vec_Int_t_, %union.anon, %union.anon.0 }
%union.anon = type { ptr }
%union.anon.0 = type { ptr }
%struct.Vec_Ptr_t_ = type { i32, i32, ptr }

@stdout = external global ptr, align 8
@.str = private unnamed_addr constant [45 x i8] c"Abc_NtkToLogic(): Network check has failed.\0A\00", align 1

; Function Attrs: inlinehint nounwind uwtable
define internal ptr @Vec_PtrEntry(ptr noundef %0, i32 noundef %1) #2 {
  %3 = alloca ptr, align 8
  %4 = alloca i32, align 4
  store ptr %0, ptr %3, align 8, !tbaa !46
  store i32 %1, ptr %4, align 4, !tbaa !25
  %5 = load ptr, ptr %3, align 8, !tbaa !46
  %6 = getelementptr inbounds nuw %struct.Vec_Ptr_t_, ptr %5, i32 0, i32 2
  %7 = load ptr, ptr %6, align 8, !tbaa !51
  %8 = load i32, ptr %4, align 4, !tbaa !25
  %9 = sext i32 %8 to i64
  %10 = getelementptr inbounds ptr, ptr %7, i64 %9
  %11 = load ptr, ptr %10, align 8, !tbaa !53
  ret ptr %11
}

; Function Attrs: inlinehint nounwind uwtable
define internal ptr @Abc_ObjFanin0(ptr noundef %0) #2 {
  %2 = alloca ptr, align 8
  store ptr %0, ptr %2, align 8, !tbaa !27
  %3 = load ptr, ptr %2, align 8, !tbaa !27
  %4 = getelementptr inbounds nuw %struct.Abc_Obj_t_, ptr %3, i32 0, i32 0
  %5 = load ptr, ptr %4, align 8, !tbaa !49
  %6 = getelementptr inbounds nuw %struct.Abc_Ntk_t_, ptr %5, i32 0, i32 5
  %7 = load ptr, ptr %6, align 8, !tbaa !26
  %8 = getelementptr inbounds nuw %struct.Vec_Ptr_t_, ptr %7, i32 0, i32 2
  %9 = load ptr, ptr %8, align 8, !tbaa !51
  %10 = load ptr, ptr %2, align 8, !tbaa !27
  %11 = getelementptr inbounds nuw %struct.Abc_Obj_t_, ptr %10, i32 0, i32 4
  %12 = getelementptr inbounds nuw %struct.Vec_Int_t_, ptr %11, i32 0, i32 2
  %13 = load ptr, ptr %12, align 8, !tbaa !55
  %14 = getelementptr inbounds i32, ptr %13, i64 0
  %15 = load i32, ptr %14, align 4, !tbaa !25
  %16 = sext i32 %15 to i64
  %17 = getelementptr inbounds ptr, ptr %9, i64 %16
  %18 = load ptr, ptr %17, align 8, !tbaa !53
  ret ptr %18
}

; Function Attrs: inlinehint nounwind uwtable
define internal ptr @Abc_ObjFanin(ptr noundef %0, i32 noundef %1) #2 {
  %3 = alloca ptr, align 8
  %4 = alloca i32, align 4
  store ptr %0, ptr %3, align 8, !tbaa !27
  store i32 %1, ptr %4, align 4, !tbaa !25
  %5 = load ptr, ptr %3, align 8, !tbaa !27
  %6 = getelementptr inbounds nuw %struct.Abc_Obj_t_, ptr %5, i32 0, i32 0
  %7 = load ptr, ptr %6, align 8, !tbaa !49
  %8 = getelementptr inbounds nuw %struct.Abc_Ntk_t_, ptr %7, i32 0, i32 5
  %9 = load ptr, ptr %8, align 8, !tbaa !26
  %10 = getelementptr inbounds nuw %struct.Vec_Ptr_t_, ptr %9, i32 0, i32 2
  %11 = load ptr, ptr %10, align 8, !tbaa !51
  %12 = load ptr, ptr %3, align 8, !tbaa !27
  %13 = getelementptr inbounds nuw %struct.Abc_Obj_t_, ptr %12, i32 0, i32 4
  %14 = getelementptr inbounds nuw %struct.Vec_Int_t_, ptr %13, i32 0, i32 2
  %15 = load ptr, ptr %14, align 8, !tbaa !55
  %16 = load i32, ptr %4, align 4, !tbaa !25
  %17 = sext i32 %16 to i64
  %18 = getelementptr inbounds i32, ptr %15, i64 %17
  %19 = load i32, ptr %18, align 4, !tbaa !25
  %20 = sext i32 %19 to i64
  %21 = getelementptr inbounds ptr, ptr %11, i64 %20
  %22 = load ptr, ptr %21, align 8, !tbaa !53
  ret ptr %22
}

; Function Attrs: inlinehint nounwind uwtable
define internal i32 @Abc_ObjFaninNum(ptr noundef %0) #2 {
  %2 = alloca ptr, align 8
  store ptr %0, ptr %2, align 8, !tbaa !27
  %3 = load ptr, ptr %2, align 8, !tbaa !27
  %4 = getelementptr inbounds nuw %struct.Abc_Obj_t_, ptr %3, i32 0, i32 4
  %5 = getelementptr inbounds nuw %struct.Vec_Int_t_, ptr %4, i32 0, i32 1
  %6 = load i32, ptr %5, align 4, !tbaa !54
  ret i32 %6
}

; Function Attrs: inlinehint nounwind uwtable
define internal ptr @Abc_ObjFanout0(ptr noundef %0) #2 {
  %2 = alloca ptr, align 8
  store ptr %0, ptr %2, align 8, !tbaa !27
  %3 = load ptr, ptr %2, align 8, !tbaa !27
  %4 = getelementptr inbounds nuw %struct.Abc_Obj_t_, ptr %3, i32 0, i32 0
  %5 = load ptr, ptr %4, align 8, !tbaa !49
  %6 = getelementptr inbounds nuw %struct.Abc_Ntk_t_, ptr %5, i32 0, i32 5
  %7 = load ptr, ptr %6, align 8, !tbaa !26
  %8 = getelementptr inbounds nuw %struct.Vec_Ptr_t_, ptr %7, i32 0, i32 2
  %9 = load ptr, ptr %8, align 8, !tbaa !51
  %10 = load ptr, ptr %2, align 8, !tbaa !27
  %11 = getelementptr inbounds nuw %struct.Abc_Obj_t_, ptr %10, i32 0, i32 5
  %12 = getelementptr inbounds nuw %struct.Vec_Int_t_, ptr %11, i32 0, i32 2
  %13 = load ptr, ptr %12, align 8, !tbaa !52
  %14 = getelementptr inbounds i32, ptr %13, i64 0
  %15 = load i32, ptr %14, align 4, !tbaa !25
  %16 = sext i32 %15 to i64
  %17 = getelementptr inbounds ptr, ptr %9, i64 %16
  %18 = load ptr, ptr %17, align 8, !tbaa !53
  ret ptr %18
}

; Function Attrs: inlinehint nounwind uwtable
define internal i32 @Abc_ObjIsNode(ptr noundef %0) #2 {
  %2 = alloca ptr, align 8
  store ptr %0, ptr %2, align 8, !tbaa !27
  %3 = load ptr, ptr %2, align 8, !tbaa !27
  %4 = getelementptr inbounds nuw %struct.Abc_Obj_t_, ptr %3, i32 0, i32 3
  %5 = load i32, ptr %4, align 4
  %6 = and i32 %5, 15
  %7 = icmp eq i32 %6, 7
  %8 = zext i1 %7 to i32
  ret i32 %8
}

; Function Attrs: inlinehint nounwind uwtable
define internal ptr @Abc_NtkObj(ptr noundef %0, i32 noundef %1) #2 {
  %3 = alloca ptr, align 8
  %4 = alloca i32, align 4
  store ptr %0, ptr %3, align 8, !tbaa !3
  store i32 %1, ptr %4, align 4, !tbaa !25
  %5 = load ptr, ptr %3, align 8, !tbaa !3
  %6 = getelementptr inbounds nuw %struct.Abc_Ntk_t_, ptr %5, i32 0, i32 5
  %7 = load ptr, ptr %6, align 8, !tbaa !26
  %8 = load i32, ptr %4, align 4, !tbaa !25
  %9 = call ptr @Vec_PtrEntry(ptr noundef %7, i32 noundef %8)
  ret ptr %9
}

; Function Attrs: inlinehint nounwind uwtable
define internal i32 @Vec_PtrSize(ptr noundef %0) #2 {
  %2 = alloca ptr, align 8
  store ptr %0, ptr %2, align 8, !tbaa !46
  %3 = load ptr, ptr %2, align 8, !tbaa !46
  %4 = getelementptr inbounds nuw %struct.Vec_Ptr_t_, ptr %3, i32 0, i32 1
  %5 = load i32, ptr %4, align 4, !tbaa !47
  ret i32 %5
}

; Function Attrs: inlinehint nounwind uwtable
define internal i32 @Abc_NtkIsStrash(ptr noundef %0) #2 {
  %2 = alloca ptr, align 8
  store ptr %0, ptr %2, align 8, !tbaa !3
  %3 = load ptr, ptr %2, align 8, !tbaa !3
  %4 = getelementptr inbounds nuw %struct.Abc_Ntk_t_, ptr %3, i32 0, i32 0
  %5 = load i32, ptr %4, align 8, !tbaa !37
  %6 = icmp eq i32 %5, 3
  %7 = zext i1 %6 to i32
  ret i32 %7
}

; Function Attrs: nounwind uwtable
define ptr @Abc_NtkToLogic(ptr noundef %0) #0 {
  %2 = alloca ptr, align 8
  %3 = alloca ptr, align 8
  %4 = alloca ptr, align 8
  %5 = alloca ptr, align 8
  %6 = alloca ptr, align 8
  %7 = alloca i32, align 4
  %8 = alloca i32, align 4
  %9 = alloca i32, align 4
  store ptr %0, ptr %3, align 8, !tbaa !3
  call void @llvm.lifetime.start.p0(i64 8, ptr %4) #7
  call void @llvm.lifetime.start.p0(i64 8, ptr %5) #7
  call void @llvm.lifetime.start.p0(i64 8, ptr %6) #7
  call void @llvm.lifetime.start.p0(i64 4, ptr %7) #7
  call void @llvm.lifetime.start.p0(i64 4, ptr %8) #7
  %10 = load ptr, ptr %3, align 8, !tbaa !3
  %11 = call i32 @Abc_NtkIsStrash(ptr noundef %10)
  %12 = icmp ne i32 %11, 0
  br i1 %12, label %13, label %16

13:                                               ; preds = %1
  %14 = load ptr, ptr %3, align 8, !tbaa !3
  %15 = call ptr @Abc_NtkAigToLogicSop(ptr noundef %14)
  store ptr %15, ptr %2, align 8
  store i32 1, ptr %9, align 4
  br label %133

16:                                               ; preds = %1
  %17 = load ptr, ptr %3, align 8, !tbaa !3
  %18 = load ptr, ptr %3, align 8, !tbaa !3
  %19 = getelementptr inbounds nuw %struct.Abc_Ntk_t_, ptr %18, i32 0, i32 1
  %20 = load i32, ptr %19, align 4, !tbaa !8
  %21 = call ptr @Abc_NtkStartFrom(ptr noundef %17, i32 noundef 2, i32 noundef %20)
  store ptr %21, ptr %4, align 8, !tbaa !3
  store i32 0, ptr %7, align 4, !tbaa !25
  br label %22

22:                                               ; preds = %55, %16
  %23 = load i32, ptr %7, align 4, !tbaa !25
  %24 = load ptr, ptr %3, align 8, !tbaa !3
  %25 = getelementptr inbounds nuw %struct.Abc_Ntk_t_, ptr %24, i32 0, i32 5
  %26 = load ptr, ptr %25, align 8, !tbaa !26
  %27 = call i32 @Vec_PtrSize(ptr noundef %26)
  %28 = icmp slt i32 %23, %27
  br i1 %28, label %29, label %33

29:                                               ; preds = %22
  %30 = load ptr, ptr %3, align 8, !tbaa !3
  %31 = load i32, ptr %7, align 4, !tbaa !25
  %32 = call ptr @Abc_NtkObj(ptr noundef %30, i32 noundef %31)
  store ptr %32, ptr %5, align 8, !tbaa !27
  br label %33

33:                                               ; preds = %29, %22
  %34 = phi i1 [ false, %22 ], [ true, %29 ]
  br i1 %34, label %35, label %58

35:                                               ; preds = %33
  %36 = load ptr, ptr %5, align 8, !tbaa !27
  %37 = icmp eq ptr %36, null
  br i1 %37, label %42, label %38

38:                                               ; preds = %35
  %39 = load ptr, ptr %5, align 8, !tbaa !27
  %40 = call i32 @Abc_ObjIsNode(ptr noundef %39)
  %41 = icmp ne i32 %40, 0
  br i1 %41, label %43, label %42

42:                                               ; preds = %38, %35
  br label %54

43:                                               ; preds = %38
  %44 = load ptr, ptr %4, align 8, !tbaa !3
  %45 = load ptr, ptr %5, align 8, !tbaa !27
  %46 = call ptr @Abc_NtkDupObj(ptr noundef %44, ptr noundef %45, i32 noundef 0)
  %47 = load ptr, ptr %5, align 8, !tbaa !27
  %48 = getelementptr inbounds nuw %struct.Abc_Obj_t_, ptr %47, i32 0, i32 7
  %49 = load ptr, ptr %48, align 8, !tbaa !29
  %50 = load ptr, ptr %5, align 8, !tbaa !27
  %51 = call ptr @Abc_ObjFanout0(ptr noundef %50)
  %52 = call ptr @Abc_ObjName(ptr noundef %51)
  %53 = call ptr @Abc_ObjAssignName(ptr noundef %49, ptr noundef %52, ptr noundef null)
  br label %54

54:                                               ; preds = %43, %42
  br label %55

55:                                               ; preds = %54
  %56 = load i32, ptr %7, align 4, !tbaa !25
  %57 = add nsw i32 %56, 1
  store i32 %57, ptr %7, align 4, !tbaa !25
  br label %22, !llvm.loop !30

58:                                               ; preds = %33
  store i32 0, ptr %7, align 4, !tbaa !25
  br label %59

59:                                               ; preds = %105, %58
  %60 = load i32, ptr %7, align 4, !tbaa !25
  %61 = load ptr, ptr %3, align 8, !tbaa !3
  %62 = getelementptr inbounds nuw %struct.Abc_Ntk_t_, ptr %61, i32 0, i32 5
  %63 = load ptr, ptr %62, align 8, !tbaa !26
  %64 = call i32 @Vec_PtrSize(ptr noundef %63)
  %65 = icmp slt i32 %60, %64
  br i1 %65, label %66, label %70

66:                                               ; preds = %59
  %67 = load ptr, ptr %3, align 8, !tbaa !3
  %68 = load i32, ptr %7, align 4, !tbaa !25
  %69 = call ptr @Abc_NtkObj(ptr noundef %67, i32 noundef %68)
  store ptr %69, ptr %5, align 8, !tbaa !27
  br label %70

70:                                               ; preds = %66, %59
  %71 = phi i1 [ false, %59 ], [ true, %66 ]
  br i1 %71, label %72, label %108

72:                                               ; preds = %70
  %73 = load ptr, ptr %5, align 8, !tbaa !27
  %74 = icmp eq ptr %73, null
  br i1 %74, label %79, label %75

75:                                               ; preds = %72
  %76 = load ptr, ptr %5, align 8, !tbaa !27
  %77 = call i32 @Abc_ObjIsNode(ptr noundef %76)
  %78 = icmp ne i32 %77, 0
  br i1 %78, label %80, label %79

79:                                               ; preds = %75, %72
  br label %104

80:                                               ; preds = %75
  store i32 0, ptr %8, align 4, !tbaa !25
  br label %81

81:                                               ; preds = %100, %80
  %82 = load i32, ptr %8, align 4, !tbaa !25
  %83 = load ptr, ptr %5, align 8, !tbaa !27
  %84 = call i32 @Abc_ObjFaninNum(ptr noundef %83)
  %85 = icmp slt i32 %82, %84
  br i1 %85, label %86, label %90

86:                                               ; preds = %81
  %87 = load ptr, ptr %5, align 8, !tbaa !27
  %88 = load i32, ptr %8, align 4, !tbaa !25
  %89 = call ptr @Abc_ObjFanin(ptr noundef %87, i32 noundef %88)
  store ptr %89, ptr %6, align 8, !tbaa !27
  br label %90

90:                                               ; preds = %86, %81
  %91 = phi i1 [ false, %81 ], [ true, %86 ]
  br i1 %91, label %92, label %103

92:                                               ; preds = %90
  %93 = load ptr, ptr %5, align 8, !tbaa !27
  %94 = getelementptr inbounds nuw %struct.Abc_Obj_t_, ptr %93, i32 0, i32 7
  %95 = load ptr, ptr %94, align 8, !tbaa !29
  %96 = load ptr, ptr %6, align 8, !tbaa !27
  %97 = call ptr @Abc_ObjFanin0(ptr noundef %96)
  %98 = getelementptr inbounds nuw %struct.Abc_Obj_t_, ptr %97, i32 0, i32 7
  %99 = load ptr, ptr %98, align 8, !tbaa !29
  call void @Abc_ObjAddFanin(ptr noundef %95, ptr noundef %99)
  br label %100

100:                                              ; preds = %92
  %101 = load i32, ptr %8, align 4, !tbaa !25
  %102 = add nsw i32 %101, 1
  store i32 %102, ptr %8, align 4, !tbaa !25
  br label %81, !llvm.loop !32

103:                                              ; preds = %90
  br label %104

104:                                              ; preds = %103, %79
  br label %105

105:                                              ; preds = %104
  %106 = load i32, ptr %7, align 4, !tbaa !25
  %107 = add nsw i32 %106, 1
  store i32 %107, ptr %7, align 4, !tbaa !25
  br label %59, !llvm.loop !33

108:                                              ; preds = %70
  %109 = load ptr, ptr %3, align 8, !tbaa !3
  %110 = load ptr, ptr %4, align 8, !tbaa !3
  call void @Abc_NtkFinalize(ptr noundef %109, ptr noundef %110)
  %111 = load ptr, ptr %4, align 8, !tbaa !3
  %112 = call i32 @Abc_NtkLogicMakeSimpleCos(ptr noundef %111, i32 noundef 0)
  %113 = load ptr, ptr %3, align 8, !tbaa !3
  %114 = getelementptr inbounds nuw %struct.Abc_Ntk_t_, ptr %113, i32 0, i32 40
  %115 = load ptr, ptr %114, align 8, !tbaa !34
  %116 = icmp ne ptr %115, null
  br i1 %116, label %117, label %124

117:                                              ; preds = %108
  %118 = load ptr, ptr %3, align 8, !tbaa !3
  %119 = getelementptr inbounds nuw %struct.Abc_Ntk_t_, ptr %118, i32 0, i32 40
  %120 = load ptr, ptr %119, align 8, !tbaa !34
  %121 = call ptr @Abc_NtkToLogic(ptr noundef %120)
  %122 = load ptr, ptr %4, align 8, !tbaa !3
  %123 = getelementptr inbounds nuw %struct.Abc_Ntk_t_, ptr %122, i32 0, i32 40
  store ptr %121, ptr %123, align 8, !tbaa !34
  br label %124

124:                                              ; preds = %117, %108
  %125 = load ptr, ptr %4, align 8, !tbaa !3
  %126 = call i32 @Abc_NtkCheck(ptr noundef %125)
  %127 = icmp ne i32 %126, 0
  br i1 %127, label %131, label %128

128:                                              ; preds = %124
  %129 = load ptr, ptr @stdout, align 8, !tbaa !35
  %130 = call i32 (ptr, ptr, ...) @fprintf(ptr noundef %129, ptr noundef @.str) #7
  br label %131

131:                                              ; preds = %128, %124
  %132 = load ptr, ptr %4, align 8, !tbaa !3
  store ptr %132, ptr %2, align 8
  store i32 1, ptr %9, align 4
  br label %133

133:                                              ; preds = %131, %13
  call void @llvm.lifetime.end.p0(i64 4, ptr %8) #7
  call void @llvm.lifetime.end.p0(i64 4, ptr %7) #7
  call void @llvm.lifetime.end.p0(i64 8, ptr %6) #7
  call void @llvm.lifetime.end.p0(i64 8, ptr %5) #7
  call void @llvm.lifetime.end.p0(i64 8, ptr %4) #7
  %134 = load ptr, ptr %2, align 8
  ret ptr %134
}