; Function Attrs: nounwind uwtable
define ptr @Abc_NtkToLogic(ptr noundef %0) local_unnamed_addr #0 {
  %.val = load i32, ptr %0, align 8, !tbaa !3
  %.not = icmp eq i32 %.val, 3
  br i1 %.not, label %2, label %4

2:                                                ; preds = %1
  %3 = tail call fastcc ptr @Abc_NtkAigToLogicSop(ptr noundef nonnull %0)
  br label %84

4:                                                ; preds = %1
  %5 = getelementptr inbounds nuw i8, ptr %0, i64 4
  %6 = load i32, ptr %5, align 4, !tbaa !24
  %7 = tail call ptr @Abc_NtkStartFrom(ptr noundef nonnull %0, i32 noundef 2, i32 noundef %6) #8
  %8 = getelementptr inbounds nuw i8, ptr %0, i64 32
  %9 = load ptr, ptr %8, align 8, !tbaa !25
  %10 = getelementptr i8, ptr %9, i64 4
  %.val5065 = load i32, ptr %10, align 4, !tbaa !26
  %11 = icmp sgt i32 %.val5065, 0
  br i1 %11, label %.lr.ph, label %.critedge2

.critedge.preheader:                              ; preds = %33
  %12 = icmp sgt i32 %.val50, 0
  br i1 %12, label %.lr.ph72, label %.critedge2

.lr.ph:                                           ; preds = %4, %33
  %13 = phi ptr [ %34, %33 ], [ %9, %4 ]
  %indvars.iv = phi i64 [ %indvars.iv.next, %33 ], [ 0, %4 ]
  %14 = getelementptr i8, ptr %13, i64 8
  %.val52.val = load ptr, ptr %14, align 8, !tbaa !28
  %15 = getelementptr inbounds nuw ptr, ptr %.val52.val, i64 %indvars.iv
  %16 = load ptr, ptr %15, align 8, !tbaa !29
  %17 = icmp eq ptr %16, null
  br i1 %17, label %33, label %18

18:                                               ; preds = %.lr.ph
  %19 = getelementptr i8, ptr %16, i64 20
  %.val54 = load i32, ptr %19, align 4
  %20 = and i32 %.val54, 15
  %.not64 = icmp eq i32 %20, 7
  br i1 %.not64, label %21, label %33

21:                                               ; preds = %18
  %22 = tail call ptr @Abc_NtkDupObj(ptr noundef %7, ptr noundef nonnull %16, i32 noundef 0) #8
  %23 = getelementptr inbounds nuw i8, ptr %16, i64 64
  %24 = load ptr, ptr %23, align 8, !tbaa !30
  %.val61 = load ptr, ptr %16, align 8, !tbaa !31
  %25 = getelementptr i8, ptr %16, i64 48
  %.val62 = load ptr, ptr %25, align 8, !tbaa !34
  %26 = getelementptr i8, ptr %.val61, i64 32
  %.val61.val = load ptr, ptr %26, align 8, !tbaa !25
  %.val62.val = load i32, ptr %.val62, align 4, !tbaa !35
  %27 = getelementptr i8, ptr %.val61.val, i64 8
  %.val61.val.val = load ptr, ptr %27, align 8, !tbaa !28
  %28 = sext i32 %.val62.val to i64
  %29 = getelementptr inbounds ptr, ptr %.val61.val.val, i64 %28
  %30 = load ptr, ptr %29, align 8, !tbaa !29
  %31 = tail call ptr @Abc_ObjName(ptr noundef %30) #8
  %32 = tail call ptr @Abc_ObjAssignName(ptr noundef %24, ptr noundef %31, ptr noundef null) #8
  %.pre = load ptr, ptr %8, align 8, !tbaa !25
  br label %33

33:                                               ; preds = %21, %18, %.lr.ph
  %34 = phi ptr [ %.pre, %21 ], [ %13, %18 ], [ %13, %.lr.ph ]
  %indvars.iv.next = add nuw nsw i64 %indvars.iv, 1
  %35 = getelementptr i8, ptr %34, i64 4
  %.val50 = load i32, ptr %35, align 4, !tbaa !26
  %36 = sext i32 %.val50 to i64
  %37 = icmp slt i64 %indvars.iv.next, %36
  br i1 %37, label %.lr.ph, label %.critedge.preheader, !llvm.loop !36

.lr.ph72:                                         ; preds = %.critedge.preheader, %.critedge4
  %38 = phi ptr [ %69, %.critedge4 ], [ %34, %.critedge.preheader ]
  %indvars.iv77 = phi i64 [ %indvars.iv.next78, %.critedge4 ], [ 0, %.critedge.preheader ]
  %39 = getelementptr i8, ptr %38, i64 8
  %.val53.val = load ptr, ptr %39, align 8, !tbaa !28
  %40 = getelementptr inbounds nuw ptr, ptr %.val53.val, i64 %indvars.iv77
  %41 = load ptr, ptr %40, align 8, !tbaa !29
  %42 = icmp eq ptr %41, null
  br i1 %42, label %.critedge4, label %43

43:                                               ; preds = %.lr.ph72
  %44 = getelementptr i8, ptr %41, i64 20
  %.val55 = load i32, ptr %44, align 4
  %45 = and i32 %.val55, 15
  %.not63 = icmp eq i32 %45, 7
  br i1 %.not63, label %.preheader, label %.critedge4

.preheader:                                       ; preds = %43
  %46 = getelementptr i8, ptr %41, i64 28
  %.val5667 = load i32, ptr %46, align 4, !tbaa !38
  %47 = icmp sgt i32 %.val5667, 0
  br i1 %47, label %.lr.ph69, label %.critedge4

.lr.ph69:                                         ; preds = %.preheader
  %48 = getelementptr i8, ptr %41, i64 32
  %49 = getelementptr inbounds nuw i8, ptr %41, i64 64
  br label %50

50:                                               ; preds = %.lr.ph69, %50
  %indvars.iv74 = phi i64 [ 0, %.lr.ph69 ], [ %indvars.iv.next75, %50 ]
  %.val57 = load ptr, ptr %41, align 8, !tbaa !31
  %.val58 = load ptr, ptr %48, align 8, !tbaa !39
  %51 = getelementptr i8, ptr %.val57, i64 32
  %.val57.val = load ptr, ptr %51, align 8, !tbaa !25
  %52 = getelementptr i8, ptr %.val57.val, i64 8
  %.val57.val.val = load ptr, ptr %52, align 8, !tbaa !28
  %53 = getelementptr inbounds nuw i32, ptr %.val58, i64 %indvars.iv74
  %54 = load i32, ptr %53, align 4, !tbaa !35
  %55 = sext i32 %54 to i64
  %56 = getelementptr inbounds ptr, ptr %.val57.val.val, i64 %55
  %57 = load ptr, ptr %56, align 8, !tbaa !29
  %58 = load ptr, ptr %49, align 8, !tbaa !30
  %.val59 = load ptr, ptr %57, align 8, !tbaa !31
  %59 = getelementptr i8, ptr %57, i64 32
  %.val60 = load ptr, ptr %59, align 8, !tbaa !39
  %60 = getelementptr i8, ptr %.val59, i64 32
  %.val59.val = load ptr, ptr %60, align 8, !tbaa !25
  %.val60.val = load i32, ptr %.val60, align 4, !tbaa !35
  %61 = getelementptr i8, ptr %.val59.val, i64 8
  %.val59.val.val = load ptr, ptr %61, align 8, !tbaa !28
  %62 = sext i32 %.val60.val to i64
  %63 = getelementptr inbounds ptr, ptr %.val59.val.val, i64 %62
  %64 = load ptr, ptr %63, align 8, !tbaa !29
  %65 = getelementptr inbounds nuw i8, ptr %64, i64 64
  %66 = load ptr, ptr %65, align 8, !tbaa !30
  tail call void @Abc_ObjAddFanin(ptr noundef %58, ptr noundef %66) #8
  %indvars.iv.next75 = add nuw nsw i64 %indvars.iv74, 1
  %.val56 = load i32, ptr %46, align 4, !tbaa !38
  %67 = sext i32 %.val56 to i64
  %68 = icmp slt i64 %indvars.iv.next75, %67
  br i1 %68, label %50, label %.critedge4.loopexit, !llvm.loop !40

.critedge4.loopexit:                              ; preds = %50
  %.pre81 = load ptr, ptr %8, align 8, !tbaa !25
  br label %.critedge4

.critedge4:                                       ; preds = %.critedge4.loopexit, %.preheader, %43, %.lr.ph72
  %69 = phi ptr [ %.pre81, %.critedge4.loopexit ], [ %38, %.preheader ], [ %38, %43 ], [ %38, %.lr.ph72 ]
  %indvars.iv.next78 = add nuw nsw i64 %indvars.iv77, 1
  %70 = getelementptr i8, ptr %69, i64 4
  %.val51 = load i32, ptr %70, align 4, !tbaa !26
  %71 = sext i32 %.val51 to i64
  %72 = icmp slt i64 %indvars.iv.next78, %71
  br i1 %72, label %.lr.ph72, label %.critedge2, !llvm.loop !41

.critedge2:                                       ; preds = %.critedge4, %4, %.critedge.preheader
  tail call void @Abc_NtkFinalize(ptr noundef nonnull %0, ptr noundef %7) #8
  %73 = tail call i32 @Abc_NtkLogicMakeSimpleCos(ptr noundef %7, i32 noundef 0) #8
  %74 = getelementptr inbounds nuw i8, ptr %0, i64 328
  %75 = load ptr, ptr %74, align 8, !tbaa !42
  %.not46 = icmp eq ptr %75, null
  br i1 %.not46, label %79, label %76

76:                                               ; preds = %.critedge2
  %77 = tail call ptr @Abc_NtkToLogic(ptr noundef nonnull %75)
  %78 = getelementptr inbounds nuw i8, ptr %7, i64 328
  store ptr %77, ptr %78, align 8, !tbaa !42
  br label %79

79:                                               ; preds = %76, %.critedge2
  %80 = tail call i32 @Abc_NtkCheck(ptr noundef %7) #8
  %.not47 = icmp eq i32 %80, 0
  br i1 %.not47, label %81, label %84

81:                                               ; preds = %79
  %82 = load ptr, ptr @stdout, align 8, !tbaa !43
  %83 = tail call i64 @fwrite(ptr nonnull @.str, i64 44, i64 1, ptr %82)
  br label %84

84:                                               ; preds = %79, %81, %2
  %.042 = phi ptr [ %3, %2 ], [ %7, %81 ], [ %7, %79 ]
  ret ptr %.042
}